; Function Attrs: mustprogress uwtable
define internal noundef ptr @"_ZZN4pkpy15__init_builtinsEPNS_2VMEEN4$_898__invokeES1_PNS_8PyObjectES4_"(ptr nocapture noundef readonly %0, ptr noundef %1, ptr noundef %2) #4 align 2 {
  %4 = ptrtoint ptr %2 to i64
  %5 = and i64 %4, 3
  %6 = icmp eq i64 %5, 2
  br i1 %6, label %"_ZZN4pkpy15__init_builtinsEPNS_2VMEENK4$_89clES1_PNS_8PyObjectES4_.exit", label %_ZN4pkpy7is_typeEPNS_8PyObjectENS_4TypeE.exit.i

_ZN4pkpy7is_typeEPNS_8PyObjectENS_4TypeE.exit.i:  ; preds = %3
  %7 = getelementptr inbounds i8, ptr %2, i64 10
  %8 = load i16, ptr %7, align 2
  %9 = icmp eq i16 %8, 5
  br i1 %9, label %10, label %"_ZZN4pkpy15__init_builtinsEPNS_2VMEENK4$_89clES1_PNS_8PyObjectES4_.exit"

10:                                               ; preds = %_ZN4pkpy7is_typeEPNS_8PyObjectENS_4TypeE.exit.i
  %11 = getelementptr inbounds i8, ptr %1, i64 24
  %12 = getelementptr inbounds i8, ptr %2, i64 24
  %13 = tail call noundef zeroext i1 @_ZNK4pkpy3StrgtERKS0_(ptr noundef nonnull align 8 dereferenceable(32) %11, ptr noundef nonnull align 8 dereferenceable(32) %12)
  %.in.v.i.i = select i1 %13, i64 264528, i64 264536
  br label %"_ZZN4pkpy15__init_builtinsEPNS_2VMEENK4$_89clES1_PNS_8PyObjectES4_.exit"

"_ZZN4pkpy15__init_builtinsEPNS_2VMEENK4$_89clES1_PNS_8PyObjectES4_.exit": ; preds = %3, %_ZN4pkpy7is_typeEPNS_8PyObjectENS_4TypeE.exit.i, %10
  %.in.v.i.sink.i = phi i64 [ %.in.v.i.i, %10 ], [ 264544, %3 ], [ 264544, %_ZN4pkpy7is_typeEPNS_8PyObjectENS_4TypeE.exit.i ]
  %.in.i.i = getelementptr inbounds i8, ptr %0, i64 %.in.v.i.sink.i
  %.0.i = load ptr, ptr %.in.i.i, align 8
  ret ptr %.0.i
}